(dp1
S'OriginalConfig'
p2
ccopy_reg
_reconstructor
p3
(cWMCore.Configuration
Configuration
p4
c__builtin__
object
p5
NtRp6
(dp7
S'Site'
p8
g3
(cWMCore.Configuration
ConfigSection
p9
g5
NtRp10
(dp11
S'_internal_skipChecks'
p12
I00
sS'_internal_documentation'
p13
S''
sS'_internal_settings'
p14
c__builtin__
set
p15
((lp16
S'storageSite'
p17
atRp18
sS'_internal_name'
p19
g8
sS'_internal_docstrings'
p20
(dp21
sS'_internal_children'
p22
g15
((ltRp23
sg17
S'T2_US_Nebraska'
p24
sS'_internal_parent_ref'
p25
NsbsS'_internal_sections'
p26
(lp27
S'General'
p28
aS'JobType'
p29
aS'Data'
p30
ag8
aS'User'
p31
aS'Debug'
p32
asg28
g3
(g9
g5
NtRp33
(dp34
S'transferLogs'
p35
I00
sg12
I00
sg13
S''
sg14
g15
((lp36
g35
aS'transferOutputs'
p37
aS'workArea'
p38
aS'requestName'
p39
atRp40
sg19
g28
sg20
(dp41
sg37
I01
sg22
g15
((ltRp42
sg39
S'Bparking_Run2018A'
p43
sg25
Nsg38
S'crab_Run2018A'
p44
sbsS'_internal_webapps'
p45
(lp46
sg31
g3
(g9
g5
NtRp47
(dp48
g12
I00
sg13
S''
sg14
g15
((ltRp49
sg19
g31
sg20
(dp50
sg22
g15
((ltRp51
sg25
NsbsS'_internal_components'
p52
(lp53
sg32
g3
(g9
g5
NtRp54
(dp55
g12
I00
sg13
S''
sg14
g15
((ltRp56
sg19
g32
sg20
(dp57
sg22
g15
((ltRp58
sg25
Nsbsg30
g3
(g9
g5
NtRp59
(dp60
S'inputDataset'
p61
S'/ParkingBPH1/Run2018A-14May2018-v1/MINIAOD'
p62
sS'outputDatasetTag'
p63
S'SingleMu_Run2018A'
p64
sg12
I00
sS'splitting'
p65
S'LumiBased'
p66
sS'unitsPerJob'
p67
I50
sg13
S''
sg14
g15
((lp68
g61
ag63
aS'publication'
p69
ag67
ag65
aS'inputDBS'
p70
aS'lumiMask'
p71
aS'outLFNDirBase'
p72
aS'runRange'
p73
atRp74
sg19
g30
sg70
S'global'
p75
sg20
(dp76
sg22
g15
((ltRp77
sg72
S'/store/user/ragomesd'
p78
sg25
Nsg71
S'https://cms-service-dqm.web.cern.ch/cms-service-dqm/CAF/certification/Collisions18/13TeV/PromptReco/Cert_314472-325175_13TeV_PromptReco_Collisions18_JSON.txt'
p79
sg73
S'314472-325175'
p80
sg69
I00
sbsg29
g3
(g9
g5
NtRp81
(dp82
S'outputFiles'
p83
(lp84
S'D0DstarData.root'
p85
asg12
I00
sg13
S''
sg14
g15
((lp86
S'psetName'
p87
aS'pluginName'
p88
ag83
atRp89
sg19
g29
sg20
(dp90
sg88
S'Analysis'
p91
sg22
g15
((ltRp92
sg87
S'/afs/cern.ch/work/r/ragomesd/B_parking/CMSSW_10_2_7/src/BanalysisMiniAOD-1/BAnalyzer/python/dstard0_cfg.py'
p93
sg25
NsbsbsS'voGroup'
p94
S''
sS'Server'
p95
S'cmsweb.cern.ch'
p96
sS'instance'
p97
S'prod'
p98
sS'RequestName'
p99
V190513_235725:ragomesd_crab_Bparking_Run2018A
p100
sS'voRole'
p101
S'NULL'
p102
sS'Port'
p103
S''
s.